; Function Attrs: mustprogress nofree nounwind uwtable
define noundef i32 @llama_model_meta_key_by_index(ptr noundef readonly captures(none) %0, i32 noundef %1, ptr noundef writeonly captures(none) %2, i64 noundef %3) local_unnamed_addr #20 {
  %5 = icmp slt i32 %1, 0
  br i1 %5, label %10, label %6

6:                                                ; preds = %4
  %7 = getelementptr inbounds nuw i8, ptr %0, i64 6680
  %8 = load i64, ptr %7, align 8, !tbaa !3456
  %9 = trunc i64 %8 to i32
  %.not = icmp slt i32 %1, %9
  br i1 %.not, label %12, label %10

10:                                               ; preds = %6, %4
  %.not10 = icmp eq i64 %3, 0
  br i1 %.not10, label %22, label %11

11:                                               ; preds = %10
  store i8 0, ptr %2, align 1, !tbaa !84
  br label %22

12:                                               ; preds = %6
  %13 = getelementptr inbounds nuw i8, ptr %0, i64 6672
  %14 = load ptr, ptr %13, align 8, !tbaa !3457
  %.not1.i.i = icmp eq i32 %1, 0
  br i1 %.not1.i.i, label %_ZSt7advanceINSt8__detail20_Node_const_iteratorISt4pairIKNSt7__cxx1112basic_stringIcSt11char_traitsIcESaIcEEES8_ELb0ELb1EEEiEvRT_T0_.exit, label %.lr.ph.preheader.i.i

.lr.ph.preheader.i.i:                             ; preds = %12
  %15 = zext nneg i32 %1 to i64
  br label %.lr.ph.i.i

.lr.ph.i.i:                                       ; preds = %.lr.ph.i.i, %.lr.ph.preheader.i.i
  %.02.i.i = phi i64 [ %17, %.lr.ph.i.i ], [ %15, %.lr.ph.preheader.i.i ]
  %16 = phi ptr [ %18, %.lr.ph.i.i ], [ %14, %.lr.ph.preheader.i.i ]
  %17 = add nsw i64 %.02.i.i, -1
  %18 = load ptr, ptr %16, align 8, !tbaa !3317
  %.not.i.i = icmp eq i64 %17, 0
  br i1 %.not.i.i, label %_ZSt7advanceINSt8__detail20_Node_const_iteratorISt4pairIKNSt7__cxx1112basic_stringIcSt11char_traitsIcESaIcEEES8_ELb0ELb1EEEiEvRT_T0_.exit, label %.lr.ph.i.i, !llvm.loop !3458

_ZSt7advanceINSt8__detail20_Node_const_iteratorISt4pairIKNSt7__cxx1112basic_stringIcSt11char_traitsIcESaIcEEES8_ELb0ELb1EEEiEvRT_T0_.exit: ; preds = %.lr.ph.i.i, %12
  %.sroa.0.0 = phi ptr [ %14, %12 ], [ %18, %.lr.ph.i.i ]
  %19 = getelementptr inbounds nuw i8, ptr %.sroa.0.0, i64 8
  %20 = load ptr, ptr %19, align 8, !tbaa !115
  %21 = tail call i32 (ptr, i64, ptr, ...) @snprintf(ptr noundef %2, i64 noundef %3, ptr noundef nonnull @.str.164, ptr noundef %20) #35
  br label %22

22:                                               ; preds = %10, %11, %_ZSt7advanceINSt8__detail20_Node_const_iteratorISt4pairIKNSt7__cxx1112basic_stringIcSt11char_traitsIcESaIcEEES8_ELb0ELb1EEEiEvRT_T0_.exit
  %.0 = phi i32 [ %21, %_ZSt7advanceINSt8__detail20_Node_const_iteratorISt4pairIKNSt7__cxx1112basic_stringIcSt11char_traitsIcESaIcEEES8_ELb0ELb1EEEiEvRT_T0_.exit ], [ -1, %11 ], [ -1, %10 ]
  ret i32 %.0
}